target datalayout = "e-m:e-p270:32:32-p271:32:32-p272:64:64-i64:64-i128:128-f80:128-n8:16:32:64-S128"
target triple = "x86_64-pc-linux-gnu"

%"class.facebook::yoga::Node" = type { i8, ptr, ptr, ptr, ptr, %"class.facebook::yoga::Style", %"struct.facebook::yoga::LayoutResults", i64, i64, ptr, %"class.std::vector", ptr, %"struct.std::array.8" }
%"class.facebook::yoga::Style" = type { i32, %"class.facebook::yoga::StyleValueHandle", %"class.facebook::yoga::StyleValueHandle", %"class.facebook::yoga::StyleValueHandle", %"class.facebook::yoga::StyleValueHandle", %"struct.std::array", %"struct.std::array", %"struct.std::array", %"struct.std::array", %"struct.std::array.0", %"struct.std::array.1", %"struct.std::array.1", %"struct.std::array.1", %"class.facebook::yoga::StyleValueHandle", %"class.facebook::yoga::StyleValuePool" }
%"struct.std::array" = type { [9 x %"class.facebook::yoga::StyleValueHandle"] }
%"struct.std::array.0" = type { [3 x %"class.facebook::yoga::StyleValueHandle"] }
%"struct.std::array.1" = type { [2 x %"class.facebook::yoga::StyleValueHandle"] }
%"class.facebook::yoga::StyleValueHandle" = type { i16 }
%"class.facebook::yoga::StyleValuePool" = type { %"class.facebook::yoga::SmallValueBuffer" }
%"class.facebook::yoga::SmallValueBuffer" = type { i16, %"struct.std::array.2", %"class.std::bitset", %"class.std::unique_ptr" }
%"struct.std::array.2" = type { [4 x i32] }
%"class.std::bitset" = type { %"struct.std::_Base_bitset" }
%"struct.std::_Base_bitset" = type { i64 }
%"class.std::unique_ptr" = type { %"struct.std::__uniq_ptr_data" }
%"struct.std::__uniq_ptr_data" = type { %"class.std::__uniq_ptr_impl" }
%"class.std::__uniq_ptr_impl" = type { %"class.std::tuple" }
%"class.std::tuple" = type { %"struct.std::_Tuple_impl" }
%"struct.std::_Tuple_impl" = type { %"struct.std::_Head_base.4" }
%"struct.std::_Head_base.4" = type { ptr }
%"struct.facebook::yoga::LayoutResults" = type { i32, %"struct.facebook::yoga::FloatOptional", i32, i32, i8, i32, %"struct.std::array.5", %"struct.facebook::yoga::CachedMeasurement", i8, %"struct.std::array.6", %"struct.std::array.6", %"struct.std::array.7", %"struct.std::array.7", %"struct.std::array.7", %"struct.std::array.7" }
%"struct.facebook::yoga::FloatOptional" = type { float }
%"struct.std::array.5" = type { [8 x %"struct.facebook::yoga::CachedMeasurement"] }
%"struct.facebook::yoga::CachedMeasurement" = type { float, float, i32, i32, float, float }
%"struct.std::array.6" = type { [2 x float] }
%"struct.std::array.7" = type { [4 x float] }
%"class.std::vector" = type { %"struct.std::_Vector_base" }
%"struct.std::_Vector_base" = type { %"struct.std::_Vector_base<facebook::yoga::Node *, std::allocator<facebook::yoga::Node *>>::_Vector_impl" }
%"struct.std::_Vector_base<facebook::yoga::Node *, std::allocator<facebook::yoga::Node *>>::_Vector_impl" = type { %"struct.std::_Vector_base<facebook::yoga::Node *, std::allocator<facebook::yoga::Node *>>::_Vector_impl_data" }
%"struct.std::_Vector_base<facebook::yoga::Node *, std::allocator<facebook::yoga::Node *>>::_Vector_impl_data" = type { ptr, ptr, ptr }
%"struct.std::array.8" = type { [2 x %"class.facebook::yoga::StyleSizeLength"] }
%"class.facebook::yoga::StyleSizeLength" = type <{ %"struct.facebook::yoga::FloatOptional", i8, [3 x i8] }>

; Function Attrs: mustprogress nounwind uwtable
define linkonce_odr noundef zeroext i8 @_ZNK8facebook4yoga5Style7displayEv(ptr noundef nonnull align 8 dereferenceable(144) %0) #7 comdat align 2 {
  %2 = alloca ptr, align 8
  store ptr %0, ptr %2, align 8, !tbaa !66
  %3 = load ptr, ptr %2, align 8
  %4 = load i32, ptr %3, align 8
  %5 = lshr i32 %4, 26
  %6 = and i32 %5, 3
  %7 = trunc i32 %6 to i8
  ret i8 %7
}

; Function Attrs: mustprogress nounwind uwtable
define linkonce_odr noundef nonnull align 8 dereferenceable(144) ptr @_ZN8facebook4yoga4Node5styleEv(ptr noundef nonnull align 8 dereferenceable(584) %0) #7 comdat align 2 {
  %2 = alloca ptr, align 8
  store ptr %0, ptr %2, align 8, !tbaa !4
  %3 = load ptr, ptr %2, align 8
  %4 = getelementptr inbounds nuw %"class.facebook::yoga::Node", ptr %3, i32 0, i32 5
  ret ptr %4
}

; Function Attrs: mustprogress nounwind uwtable
define linkonce_odr noundef nonnull align 8 dereferenceable(8) ptr @_ZNSt6vectorIPN8facebook4yoga4NodeESaIS3_EEixEm(ptr noundef nonnull align 8 dereferenceable(24) %0, i64 noundef %1) #7 comdat align 2 {
  %3 = alloca ptr, align 8
  %4 = alloca i64, align 8
  store ptr %0, ptr %3, align 8, !tbaa !82
  store i64 %1, ptr %4, align 8, !tbaa !108
  %5 = load ptr, ptr %3, align 8
  %6 = getelementptr inbounds nuw %"struct.std::_Vector_base", ptr %5, i32 0, i32 0
  %7 = getelementptr inbounds nuw %"struct.std::_Vector_base<facebook::yoga::Node *, std::allocator<facebook::yoga::Node *>>::_Vector_impl_data", ptr %6, i32 0, i32 0
  %8 = load ptr, ptr %7, align 8, !tbaa !84
  %9 = load i64, ptr %4, align 8, !tbaa !108
  %10 = getelementptr inbounds nuw ptr, ptr %8, i64 %9
  ret ptr %10
}

; Function Attrs: mustprogress uwtable
define void @_ZN8facebook4yoga4Node12replaceChildEPS1_m(ptr noundef nonnull align 8 dereferenceable(584) %0, ptr noundef %1, i64 noundef %2) #4 align 2 {
  %4 = alloca ptr, align 8
  %5 = alloca ptr, align 8
  %6 = alloca i64, align 8
  %7 = alloca ptr, align 8
  store ptr %0, ptr %4, align 8, !tbaa !4
  store ptr %1, ptr %5, align 8, !tbaa !4
  store i64 %2, ptr %6, align 8, !tbaa !108
  %8 = load ptr, ptr %4, align 8
  call void @llvm.lifetime.start.p0(i64 8, ptr %7) #3
  %9 = getelementptr inbounds nuw %"class.facebook::yoga::Node", ptr %8, i32 0, i32 10
  %10 = load i64, ptr %6, align 8, !tbaa !108
  %11 = call noundef nonnull align 8 dereferenceable(8) ptr @_ZNSt6vectorIPN8facebook4yoga4NodeESaIS3_EEixEm(ptr noundef nonnull align 8 dereferenceable(24) %9, i64 noundef %10) #3
  %12 = load ptr, ptr %11, align 8, !tbaa !4
  store ptr %12, ptr %7, align 8, !tbaa !4
  %13 = load ptr, ptr %7, align 8, !tbaa !4
  %14 = call noundef nonnull align 8 dereferenceable(144) ptr @_ZN8facebook4yoga4Node5styleEv(ptr noundef nonnull align 8 dereferenceable(584) %13)
  %15 = call noundef zeroext i8 @_ZNK8facebook4yoga5Style7displayEv(ptr noundef nonnull align 8 dereferenceable(144) %14)
  %16 = icmp eq i8 %15, 2
  br i1 %16, label %17, label %26

17:                                               ; preds = %3
  %18 = load ptr, ptr %5, align 8, !tbaa !4
  %19 = call noundef nonnull align 8 dereferenceable(144) ptr @_ZN8facebook4yoga4Node5styleEv(ptr noundef nonnull align 8 dereferenceable(584) %18)
  %20 = call noundef zeroext i8 @_ZNK8facebook4yoga5Style7displayEv(ptr noundef nonnull align 8 dereferenceable(144) %19)
  %21 = icmp ne i8 %20, 2
  br i1 %21, label %22, label %26

22:                                               ; preds = %17
  %23 = getelementptr inbounds nuw %"class.facebook::yoga::Node", ptr %8, i32 0, i32 8
  %24 = load i64, ptr %23, align 8, !tbaa !63
  %25 = add i64 %24, -1
  store i64 %25, ptr %23, align 8, !tbaa !63
  br label %41

26:                                               ; preds = %17, %3
  %27 = load ptr, ptr %7, align 8, !tbaa !4
  %28 = call noundef nonnull align 8 dereferenceable(144) ptr @_ZN8facebook4yoga4Node5styleEv(ptr noundef nonnull align 8 dereferenceable(584) %27)
  %29 = call noundef zeroext i8 @_ZNK8facebook4yoga5Style7displayEv(ptr noundef nonnull align 8 dereferenceable(144) %28)
  %30 = icmp ne i8 %29, 2
  br i1 %30, label %31, label %40

31:                                               ; preds = %26
  %32 = load ptr, ptr %5, align 8, !tbaa !4
  %33 = call noundef nonnull align 8 dereferenceable(144) ptr @_ZN8facebook4yoga4Node5styleEv(ptr noundef nonnull align 8 dereferenceable(584) %32)
  %34 = call noundef zeroext i8 @_ZNK8facebook4yoga5Style7displayEv(ptr noundef nonnull align 8 dereferenceable(144) %33)
  %35 = icmp eq i8 %34, 2
  br i1 %35, label %36, label %40

36:                                               ; preds = %31
  %37 = getelementptr inbounds nuw %"class.facebook::yoga::Node", ptr %8, i32 0, i32 8
  %38 = load i64, ptr %37, align 8, !tbaa !63
  %39 = add i64 %38, 1
  store i64 %39, ptr %37, align 8, !tbaa !63
  br label %40

40:                                               ; preds = %36, %31, %26
  br label %41

41:                                               ; preds = %40, %22
  %42 = load ptr, ptr %5, align 8, !tbaa !4
  %43 = getelementptr inbounds nuw %"class.facebook::yoga::Node", ptr %8, i32 0, i32 10
  %44 = load i64, ptr %6, align 8, !tbaa !108
  %45 = call noundef nonnull align 8 dereferenceable(8) ptr @_ZNSt6vectorIPN8facebook4yoga4NodeESaIS3_EEixEm(ptr noundef nonnull align 8 dereferenceable(24) %43, i64 noundef %44) #3
  store ptr %42, ptr %45, align 8, !tbaa !4
  call void @llvm.lifetime.end.p0(i64 8, ptr %7) #3
  ret void
}