; Function Attrs: mustprogress nofree norecurse nosync nounwind willreturn memory(readwrite, inaccessiblemem: none) uwtable
define void @_ZN8facebook4yoga4Node12replaceChildEPS1_m(ptr noundef nonnull align 8 captures(none) dereferenceable(584) %0, ptr noundef %1, i64 noundef %2) local_unnamed_addr #11 align 2 {
  %4 = getelementptr inbounds nuw i8, ptr %0, i64 536
  %5 = load ptr, ptr %4, align 8, !tbaa !66
  %6 = getelementptr inbounds nuw ptr, ptr %5, i64 %2
  %7 = load ptr, ptr %6, align 8, !tbaa !94
  %8 = getelementptr inbounds nuw i8, ptr %7, i64 40
  %9 = load i32, ptr %8, align 8
  %10 = and i32 %9, 201326592
  %11 = icmp eq i32 %10, 134217728
  %12 = getelementptr inbounds nuw i8, ptr %1, i64 40
  %13 = load i32, ptr %12, align 8
  %14 = and i32 %13, 201326592
  %.not = icmp eq i32 %14, 134217728
  br i1 %11, label %15, label %16

15:                                               ; preds = %3
  br i1 %.not, label %.thread, label %.thread.sink.split

16:                                               ; preds = %3
  br i1 %.not, label %.thread.sink.split, label %.thread

.thread.sink.split:                               ; preds = %16, %15
  %.sink10 = phi i64 [ -1, %15 ], [ 1, %16 ]
  %17 = getelementptr inbounds nuw i8, ptr %0, i64 520
  %18 = load i64, ptr %17, align 8, !tbaa !89
  %19 = add i64 %18, %.sink10
  store i64 %19, ptr %17, align 8, !tbaa !89
  br label %.thread

.thread:                                          ; preds = %.thread.sink.split, %15, %16
  store ptr %1, ptr %6, align 8, !tbaa !94
  ret void
}